target datalayout = "e-m:e-p270:32:32-p271:32:32-p272:64:64-i64:64-i128:128-f80:128-n8:16:32:64-S128"
target triple = "x86_64-pc-linux-gnu"

%struct.Qureg = type { i32, i32, i32, i64, i64, i32, i32, %struct.ComplexArray, %struct.ComplexArray, %struct.ComplexArray, ptr, ptr, ptr, ptr, ptr, ptr }
%struct.ComplexArray = type { ptr, ptr }

@__func__.multiControlledMultiQubitNot = private unnamed_addr constant [29 x i8] c"multiControlledMultiQubitNot\00", align 1

; Function Attrs: nounwind uwtable
define void @multiControlledMultiQubitNot(ptr noundef byval(%struct.Qureg) align 8 %0, ptr noundef %1, i32 noundef %2, ptr noundef %3, i32 noundef %4) #0 {
  %6 = alloca ptr, align 8
  %7 = alloca i32, align 4
  %8 = alloca ptr, align 8
  %9 = alloca i32, align 4
  %10 = alloca i64, align 8
  %11 = alloca i64, align 8
  %12 = alloca i32, align 4
  store ptr %1, ptr %6, align 8, !tbaa !27
  store i32 %2, ptr %7, align 4, !tbaa !4
  store ptr %3, ptr %8, align 8, !tbaa !27
  store i32 %4, ptr %9, align 4, !tbaa !4
  %13 = load ptr, ptr %6, align 8, !tbaa !27
  %14 = load i32, ptr %7, align 4, !tbaa !4
  %15 = load ptr, ptr %8, align 8, !tbaa !27
  %16 = load i32, ptr %9, align 4, !tbaa !4
  call void @validateMultiControlsMultiTargets(ptr noundef byval(%struct.Qureg) align 8 %0, ptr noundef %13, i32 noundef %14, ptr noundef %15, i32 noundef %16, ptr noundef @__func__.multiControlledMultiQubitNot)
  call void @llvm.lifetime.start.p0(i64 8, ptr %10) #7
  %17 = load ptr, ptr %6, align 8, !tbaa !27
  %18 = load i32, ptr %7, align 4, !tbaa !4
  %19 = call i64 @getQubitBitMask(ptr noundef %17, i32 noundef %18)
  store i64 %19, ptr %10, align 8, !tbaa !22
  call void @llvm.lifetime.start.p0(i64 8, ptr %11) #7
  %20 = load ptr, ptr %8, align 8, !tbaa !27
  %21 = load i32, ptr %9, align 4, !tbaa !4
  %22 = call i64 @getQubitBitMask(ptr noundef %20, i32 noundef %21)
  store i64 %22, ptr %11, align 8, !tbaa !22
  %23 = load i64, ptr %10, align 8, !tbaa !22
  %24 = trunc i64 %23 to i32
  %25 = load i64, ptr %11, align 8, !tbaa !22
  %26 = trunc i64 %25 to i32
  call void @statevec_multiControlledMultiQubitNot(ptr noundef byval(%struct.Qureg) align 8 %0, i32 noundef %24, i32 noundef %26)
  %27 = getelementptr inbounds nuw %struct.Qureg, ptr %0, i32 0, i32 0
  %28 = load i32, ptr %27, align 8, !tbaa !13
  %29 = icmp ne i32 %28, 0
  br i1 %29, label %30, label %43

30:                                               ; preds = %5
  call void @llvm.lifetime.start.p0(i64 4, ptr %12) #7
  %31 = getelementptr inbounds nuw %struct.Qureg, ptr %0, i32 0, i32 1
  %32 = load i32, ptr %31, align 4, !tbaa !18
  store i32 %32, ptr %12, align 4, !tbaa !4
  %33 = load i64, ptr %10, align 8, !tbaa !22
  %34 = load i32, ptr %12, align 4, !tbaa !4
  %35 = zext i32 %34 to i64
  %36 = shl i64 %33, %35
  %37 = trunc i64 %36 to i32
  %38 = load i64, ptr %11, align 8, !tbaa !22
  %39 = load i32, ptr %12, align 4, !tbaa !4
  %40 = zext i32 %39 to i64
  %41 = shl i64 %38, %40
  %42 = trunc i64 %41 to i32
  call void @statevec_multiControlledMultiQubitNot(ptr noundef byval(%struct.Qureg) align 8 %0, i32 noundef %37, i32 noundef %42)
  call void @llvm.lifetime.end.p0(i64 4, ptr %12) #7
  br label %43

43:                                               ; preds = %30, %5
  %44 = load ptr, ptr %6, align 8, !tbaa !27
  %45 = load i32, ptr %7, align 4, !tbaa !4
  %46 = load ptr, ptr %8, align 8, !tbaa !27
  %47 = load i32, ptr %9, align 4, !tbaa !4
  call void @qasm_recordMultiControlledMultiQubitNot(ptr noundef byval(%struct.Qureg) align 8 %0, ptr noundef %44, i32 noundef %45, ptr noundef %46, i32 noundef %47)
  call void @llvm.lifetime.end.p0(i64 8, ptr %11) #7
  call void @llvm.lifetime.end.p0(i64 8, ptr %10) #7
  ret void
}