; Function Attrs: nounwind uwtable
define void @multiControlledMultiQubitNot(ptr noundef readonly byval(%struct.Qureg) align 8 captures(none) %0, ptr noundef %1, i32 noundef %2, ptr noundef %3, i32 noundef %4) local_unnamed_addr #0 {
  tail call void @validateMultiControlsMultiTargets(ptr noundef nonnull byval(%struct.Qureg) align 8 %0, ptr noundef %1, i32 noundef %2, ptr noundef %3, i32 noundef %4, ptr noundef nonnull @__func__.multiControlledMultiQubitNot) #17
  %6 = tail call i64 @getQubitBitMask(ptr noundef %1, i32 noundef %2) #17
  %7 = tail call i64 @getQubitBitMask(ptr noundef %3, i32 noundef %4) #17
  %8 = trunc i64 %6 to i32
  %9 = trunc i64 %7 to i32
  tail call void @statevec_multiControlledMultiQubitNot(ptr noundef nonnull byval(%struct.Qureg) align 8 %0, i32 noundef %8, i32 noundef %9) #17
  %10 = load i32, ptr %0, align 8, !tbaa !12
  %.not = icmp eq i32 %10, 0
  br i1 %.not, label %19, label %11

11:                                               ; preds = %5
  %12 = getelementptr inbounds nuw i8, ptr %0, i64 4
  %13 = load i32, ptr %12, align 4, !tbaa !17
  %14 = zext i32 %13 to i64
  %15 = shl i64 %6, %14
  %16 = trunc i64 %15 to i32
  %17 = shl i64 %7, %14
  %18 = trunc i64 %17 to i32
  tail call void @statevec_multiControlledMultiQubitNot(ptr noundef nonnull byval(%struct.Qureg) align 8 %0, i32 noundef %16, i32 noundef %18) #17
  br label %19

19:                                               ; preds = %11, %5
  tail call void @qasm_recordMultiControlledMultiQubitNot(ptr noundef nonnull byval(%struct.Qureg) align 8 %0, ptr noundef %1, i32 noundef %2, ptr noundef %3, i32 noundef %4) #17
  ret void
}